; ModuleID = '36/2.c'
source_filename = "36/2.c"
target datalayout = "e-m:e-p270:32:32-p271:32:32-p272:64:64-i64:64-f80:128-n8:16:32:64-S128"
target triple = "x86_64-pc-linux-gnu"

@hash1 = dso_local global [500 x i32] zeroinitializer, align 16
@hash2 = dso_local global [500 x i32] zeroinitializer, align 16
@.str = private unnamed_addr constant [6 x i8] c"%s %s\00", align 1
@.str.1 = private unnamed_addr constant [3 x i8] c"NO\00", align 1
@.str.2 = private unnamed_addr constant [4 x i8] c"YES\00", align 1

; Function Attrs: noinline nounwind uwtable
define dso_local void @count(i8* %0, i32* %1) #0 {
  %3 = alloca i8*, align 8
  %4 = alloca i32*, align 8
  %5 = alloca i32, align 4
  %6 = alloca i32, align 4
  store i8* %0, i8** %3, align 8
  store i32* %1, i32** %4, align 8
  %7 = load i8*, i8** %3, align 8
  %8 = call i64 @strlen(i8* %7) #3
  %9 = trunc i64 %8 to i32
  store i32 %9, i32* %6, align 4
  store i32 0, i32* %5, align 4
  br label %10

10:                                               ; preds = %25, %2
  %11 = load i32, i32* %5, align 4
  %12 = load i32, i32* %6, align 4
  %13 = icmp slt i32 %11, %12
  br i1 %13, label %14, label %28

14:                                               ; preds = %10
  %15 = load i32*, i32** %4, align 8
  %16 = load i8*, i8** %3, align 8
  %17 = load i32, i32* %5, align 4
  %18 = sext i32 %17 to i64
  %19 = getelementptr inbounds i8, i8* %16, i64 %18
  %20 = load i8, i8* %19, align 1
  %21 = sext i8 %20 to i64
  %22 = getelementptr inbounds i32, i32* %15, i64 %21
  %23 = load i32, i32* %22, align 4
  %24 = add nsw i32 %23, 1
  store i32 %24, i32* %22, align 4
  br label %25

25:                                               ; preds = %14
  %26 = load i32, i32* %5, align 4
  %27 = add nsw i32 %26, 1
  store i32 %27, i32* %5, align 4
  br label %10

28:                                               ; preds = %10
  ret void
}

; Function Attrs: nounwind readonly
declare dso_local i64 @strlen(i8*) #1

; Function Attrs: noinline nounwind uwtable
define dso_local void @main() #0 {
  %1 = alloca i32, align 4
  %2 = alloca i32, align 4
  %3 = alloca [100 x i8], align 16
  %4 = alloca [100 x i8], align 16
  store i32 0, i32* %2, align 4
  %5 = getelementptr inbounds [100 x i8], [100 x i8]* %3, i64 0, i64 0
  %6 = getelementptr inbounds [100 x i8], [100 x i8]* %4, i64 0, i64 0
  %7 = call i32 (i8*, ...) @__isoc99_scanf(i8* getelementptr inbounds ([6 x i8], [6 x i8]* @.str, i64 0, i64 0), i8* %5, i8* %6)
  %8 = getelementptr inbounds [100 x i8], [100 x i8]* %3, i64 0, i64 0
  call void @count(i8* %8, i32* getelementptr inbounds ([500 x i32], [500 x i32]* @hash1, i64 0, i64 0))
  %9 = getelementptr inbounds [100 x i8], [100 x i8]* %4, i64 0, i64 0
  call void @count(i8* %9, i32* getelementptr inbounds ([500 x i32], [500 x i32]* @hash2, i64 0, i64 0))
  store i32 0, i32* %1, align 4
  br label %10

10:                                               ; preds = %25, %0
  %11 = load i32, i32* %1, align 4
  %12 = icmp slt i32 %11, 500
  br i1 %12, label %13, label %28

13:                                               ; preds = %10
  %14 = load i32, i32* %1, align 4
  %15 = sext i32 %14 to i64
  %16 = getelementptr inbounds [500 x i32], [500 x i32]* @hash1, i64 0, i64 %15
  %17 = load i32, i32* %16, align 4
  %18 = load i32, i32* %1, align 4
  %19 = sext i32 %18 to i64
  %20 = getelementptr inbounds [500 x i32], [500 x i32]* @hash2, i64 0, i64 %19
  %21 = load i32, i32* %20, align 4
  %22 = icmp ne i32 %17, %21
  br i1 %22, label %23, label %24

23:                                               ; preds = %13
  store i32 1, i32* %2, align 4
  br label %28

24:                                               ; preds = %13
  br label %25

25:                                               ; preds = %24
  %26 = load i32, i32* %1, align 4
  %27 = add nsw i32 %26, 1
  store i32 %27, i32* %1, align 4
  br label %10

28:                                               ; preds = %23, %10
  %29 = load i32, i32* %2, align 4
  %30 = icmp ne i32 %29, 0
  br i1 %30, label %31, label %33

31:                                               ; preds = %28
  %32 = call i32 (i8*, ...) @printf(i8* getelementptr inbounds ([3 x i8], [3 x i8]* @.str.1, i64 0, i64 0))
  br label %35

33:                                               ; preds = %28
  %34 = call i32 (i8*, ...) @printf(i8* getelementptr inbounds ([4 x i8], [4 x i8]* @.str.2, i64 0, i64 0))
  br label %35

35:                                               ; preds = %33, %31
  ret void
}

declare dso_local i32 @__isoc99_scanf(i8*, ...) #2

declare dso_local i32 @printf(i8*, ...) #2


!llvm.module.flags = !{!0}
!llvm.ident = !{!1}

!0 = !{i32 1, !"wchar_size", i32 4}
!1 = !{!"clang version 10.0.0-4ubuntu1 "}
